; Function Attrs: mustprogress uwtable
define noundef range(i64 -60, 1) i64 @_ZN11duckdb_zstd27ZSTD_initCStream_usingCDictEPNS_11ZSTD_CCtx_sEPKNS_12ZSTD_CDict_sE(ptr noundef captures(none) initializes((760, 768), (3608, 3612), (3664, 3688), (3696, 3728)) %0, ptr noundef %1) local_unnamed_addr #2 {
  %3 = getelementptr inbounds nuw i8, ptr %0, i64 3608
  store i32 0, ptr %3, align 8, !tbaa !99
  %4 = getelementptr inbounds nuw i8, ptr %0, i64 760
  store i64 0, ptr %4, align 8, !tbaa !136
  tail call fastcc void @_ZN11duckdb_zstdL18ZSTD_clearAllDictsEPNS_11ZSTD_CCtx_sE(ptr noundef nonnull %0)
  %5 = getelementptr inbounds nuw i8, ptr %0, i64 3696
  store ptr %1, ptr %5, align 8, !tbaa !129
  ret i64 0
}